; Function Attrs: mustprogress uwtable
define noundef i64 @_Z16logged_rv64i_oriP11processor_t6insn_tm(ptr noundef %0, i64 %1, i64 noundef %2) local_unnamed_addr #6 {
  %4 = alloca i64, align 8
  %5 = shl i64 %1, 32
  %6 = ashr i64 %5, 52
  %7 = getelementptr inbounds nuw i8, ptr %0, i64 256
  %8 = lshr i64 %1, 15
  %9 = and i64 %8, 31
  %10 = getelementptr inbounds nuw [32 x i64], ptr %7, i64 0, i64 %9
  %11 = load i64, ptr %10, align 8, !tbaa !3
  %12 = or i64 %11, %6
  %13 = getelementptr inbounds nuw i8, ptr %0, i64 3840
  call void @llvm.lifetime.start.p0(i64 8, ptr nonnull %4) #15
  %14 = lshr i64 %1, 7
  %15 = and i64 %14, 31
  %16 = shl nuw nsw i64 %15, 4
  store i64 %16, ptr %4, align 8, !tbaa !3
  %17 = call noundef nonnull align 8 dereferenceable(16) ptr @_ZNSt3mapIm10float128_tSt4lessImESaISt4pairIKmS0_EEEixEOm(ptr noundef nonnull align 8 dereferenceable(48) %13, ptr noundef nonnull align 8 dereferenceable(8) %4)
  store i64 %12, ptr %17, align 8
  %.sroa.4.0..sroa_idx = getelementptr inbounds nuw i8, ptr %17, i64 8
  store i64 0, ptr %.sroa.4.0..sroa_idx, align 8, !tbaa !7
  call void @llvm.lifetime.end.p0(i64 8, ptr nonnull %4) #15
  %.not.i = icmp eq i64 %15, 0
  br i1 %.not.i, label %_ZN9regfile_tImLm32ELb1EE5writeEmm.exit, label %18

18:                                               ; preds = %3
  %19 = getelementptr inbounds nuw [32 x i64], ptr %7, i64 0, i64 %15
  store i64 %12, ptr %19, align 8, !tbaa !3
  br label %_ZN9regfile_tImLm32ELb1EE5writeEmm.exit

_ZN9regfile_tImLm32ELb1EE5writeEmm.exit:          ; preds = %3, %18
  %20 = add i64 %2, 4
  ret i64 %20
}